; ModuleID = '35/1989.c'
source_filename = "35/1989.c"
target datalayout = "e-m:e-p270:32:32-p271:32:32-p272:64:64-i64:64-f80:128-n8:16:32:64-S128"
target triple = "x86_64-pc-linux-gnu"

@.str = private unnamed_addr constant [6 x i8] c"%d,%d\00", align 1
@.str.1 = private unnamed_addr constant [3 x i8] c"%d\00", align 1
@.str.2 = private unnamed_addr constant [6 x i8] c"%d+%d\00", align 1
@.str.3 = private unnamed_addr constant [3 x i8] c"No\00", align 1

; Function Attrs: noinline nounwind uwtable
define dso_local i32 @main() #0 {
  %1 = alloca i32, align 4
  %2 = alloca [1000 x [1000 x i32]], align 16
  %3 = alloca i32, align 4
  %4 = alloca i32, align 4
  %5 = alloca i32, align 4
  %6 = alloca i32, align 4
  %7 = alloca i32, align 4
  %8 = alloca i32, align 4
  %9 = alloca i32, align 4
  %10 = alloca i32, align 4
  %11 = alloca i32, align 4
  store i32 0, i32* %1, align 4
  store i32 0, i32* %7, align 4
  %12 = call i32 (i8*, ...) @__isoc99_scanf(i8* getelementptr inbounds ([6 x i8], [6 x i8]* @.str, i64 0, i64 0), i32* %3, i32* %4)
  store i32 0, i32* %5, align 4
  br label %13

13:                                               ; preds = %34, %0
  %14 = load i32, i32* %5, align 4
  %15 = load i32, i32* %3, align 4
  %16 = icmp slt i32 %14, %15
  br i1 %16, label %17, label %37

17:                                               ; preds = %13
  store i32 0, i32* %6, align 4
  br label %18

18:                                               ; preds = %30, %17
  %19 = load i32, i32* %6, align 4
  %20 = load i32, i32* %4, align 4
  %21 = icmp slt i32 %19, %20
  br i1 %21, label %22, label %33

22:                                               ; preds = %18
  %23 = load i32, i32* %5, align 4
  %24 = sext i32 %23 to i64
  %25 = getelementptr inbounds [1000 x [1000 x i32]], [1000 x [1000 x i32]]* %2, i64 0, i64 %24
  %26 = load i32, i32* %6, align 4
  %27 = sext i32 %26 to i64
  %28 = getelementptr inbounds [1000 x i32], [1000 x i32]* %25, i64 0, i64 %27
  %29 = call i32 (i8*, ...) @__isoc99_scanf(i8* getelementptr inbounds ([3 x i8], [3 x i8]* @.str.1, i64 0, i64 0), i32* %28)
  br label %30

30:                                               ; preds = %22
  %31 = load i32, i32* %6, align 4
  %32 = add nsw i32 %31, 1
  store i32 %32, i32* %6, align 4
  br label %18

33:                                               ; preds = %18
  br label %34

34:                                               ; preds = %33
  %35 = load i32, i32* %5, align 4
  %36 = add nsw i32 %35, 1
  store i32 %36, i32* %5, align 4
  br label %13

37:                                               ; preds = %13
  store i32 0, i32* %5, align 4
  br label %38

38:                                               ; preds = %128, %37
  %39 = load i32, i32* %5, align 4
  %40 = load i32, i32* %3, align 4
  %41 = icmp slt i32 %39, %40
  br i1 %41, label %42, label %131

42:                                               ; preds = %38
  %43 = load i32, i32* %7, align 4
  %44 = icmp eq i32 %43, 1
  br i1 %44, label %45, label %46

45:                                               ; preds = %42
  br label %131

46:                                               ; preds = %42
  store i32 0, i32* %6, align 4
  br label %47

47:                                               ; preds = %124, %46
  %48 = load i32, i32* %6, align 4
  %49 = load i32, i32* %4, align 4
  %50 = icmp slt i32 %48, %49
  br i1 %50, label %51, label %127

51:                                               ; preds = %47
  %52 = load i32, i32* %7, align 4
  %53 = icmp eq i32 %52, 1
  br i1 %53, label %54, label %55

54:                                               ; preds = %51
  br label %127

55:                                               ; preds = %51
  %56 = load i32, i32* %5, align 4
  %57 = sext i32 %56 to i64
  %58 = getelementptr inbounds [1000 x [1000 x i32]], [1000 x [1000 x i32]]* %2, i64 0, i64 %57
  %59 = load i32, i32* %6, align 4
  %60 = sext i32 %59 to i64
  %61 = getelementptr inbounds [1000 x i32], [1000 x i32]* %58, i64 0, i64 %60
  %62 = load i32, i32* %61, align 4
  store i32 %62, i32* %8, align 4
  store i32 0, i32* %11, align 4
  store i32 0, i32* %9, align 4
  br label %63

63:                                               ; preds = %83, %55
  %64 = load i32, i32* %9, align 4
  %65 = load i32, i32* %4, align 4
  %66 = icmp slt i32 %64, %65
  br i1 %66, label %67, label %86

67:                                               ; preds = %63
  %68 = load i32, i32* %8, align 4
  %69 = add nsw i32 %68, 1
  %70 = load i32, i32* %5, align 4
  %71 = sext i32 %70 to i64
  %72 = getelementptr inbounds [1000 x [1000 x i32]], [1000 x [1000 x i32]]* %2, i64 0, i64 %71
  %73 = load i32, i32* %9, align 4
  %74 = sext i32 %73 to i64
  %75 = getelementptr inbounds [1000 x i32], [1000 x i32]* %72, i64 0, i64 %74
  %76 = load i32, i32* %75, align 4
  %77 = icmp sle i32 %69, %76
  br i1 %77, label %78, label %79

78:                                               ; preds = %67
  br label %86

79:                                               ; preds = %67
  %80 = load i32, i32* %11, align 4
  %81 = add nsw i32 %80, 1
  store i32 %81, i32* %11, align 4
  br label %82

82:                                               ; preds = %79
  br label %83

83:                                               ; preds = %82
  %84 = load i32, i32* %9, align 4
  %85 = add nsw i32 %84, 1
  store i32 %85, i32* %9, align 4
  br label %63

86:                                               ; preds = %78, %63
  %87 = load i32, i32* %11, align 4
  %88 = load i32, i32* %4, align 4
  %89 = icmp eq i32 %87, %88
  br i1 %89, label %90, label %123

90:                                               ; preds = %86
  store i32 0, i32* %11, align 4
  store i32 0, i32* %10, align 4
  br label %91

91:                                               ; preds = %111, %90
  %92 = load i32, i32* %10, align 4
  %93 = load i32, i32* %3, align 4
  %94 = icmp slt i32 %92, %93
  br i1 %94, label %95, label %114

95:                                               ; preds = %91
  %96 = load i32, i32* %8, align 4
  %97 = sub nsw i32 %96, 1
  %98 = load i32, i32* %10, align 4
  %99 = sext i32 %98 to i64
  %100 = getelementptr inbounds [1000 x [1000 x i32]], [1000 x [1000 x i32]]* %2, i64 0, i64 %99
  %101 = load i32, i32* %6, align 4
  %102 = sext i32 %101 to i64
  %103 = getelementptr inbounds [1000 x i32], [1000 x i32]* %100, i64 0, i64 %102
  %104 = load i32, i32* %103, align 4
  %105 = icmp sge i32 %97, %104
  br i1 %105, label %106, label %107

106:                                              ; preds = %95
  br label %114

107:                                              ; preds = %95
  %108 = load i32, i32* %11, align 4
  %109 = add nsw i32 %108, 1
  store i32 %109, i32* %11, align 4
  br label %110

110:                                              ; preds = %107
  br label %111

111:                                              ; preds = %110
  %112 = load i32, i32* %10, align 4
  %113 = add nsw i32 %112, 1
  store i32 %113, i32* %10, align 4
  br label %91

114:                                              ; preds = %106, %91
  %115 = load i32, i32* %11, align 4
  %116 = load i32, i32* %3, align 4
  %117 = icmp eq i32 %115, %116
  br i1 %117, label %118, label %122

118:                                              ; preds = %114
  %119 = load i32, i32* %5, align 4
  %120 = load i32, i32* %6, align 4
  %121 = call i32 (i8*, ...) @printf(i8* getelementptr inbounds ([6 x i8], [6 x i8]* @.str.2, i64 0, i64 0), i32 %119, i32 %120)
  store i32 1, i32* %7, align 4
  br label %122

122:                                              ; preds = %118, %114
  br label %123

123:                                              ; preds = %122, %86
  br label %124

124:                                              ; preds = %123
  %125 = load i32, i32* %6, align 4
  %126 = add nsw i32 %125, 1
  store i32 %126, i32* %6, align 4
  br label %47

127:                                              ; preds = %54, %47
  br label %128

128:                                              ; preds = %127
  %129 = load i32, i32* %5, align 4
  %130 = add nsw i32 %129, 1
  store i32 %130, i32* %5, align 4
  br label %38

131:                                              ; preds = %45, %38
  %132 = load i32, i32* %7, align 4
  %133 = icmp eq i32 %132, 0
  br i1 %133, label %134, label %136

134:                                              ; preds = %131
  %135 = call i32 (i8*, ...) @printf(i8* getelementptr inbounds ([3 x i8], [3 x i8]* @.str.3, i64 0, i64 0))
  br label %136

136:                                              ; preds = %134, %131
  ret i32 0
}

declare dso_local i32 @__isoc99_scanf(i8*, ...) #1

declare dso_local i32 @printf(i8*, ...) #1


!llvm.module.flags = !{!0}
!llvm.ident = !{!1}

!0 = !{i32 1, !"wchar_size", i32 4}
!1 = !{!"clang version 10.0.0-4ubuntu1 "}
